target datalayout = "e-m:e-p270:32:32-p271:32:32-p272:64:64-i64:64-i128:128-f80:128-n8:16:32:64-S128"
target triple = "x86_64-unknown-linux-gnu"

%"class.v8::Local.257" = type { %"class.v8::LocalBase.258" }
%"class.v8::LocalBase.258" = type { %"class.v8::IndirectHandleBase" }
%"class.v8::IndirectHandleBase" = type { ptr }
%"class.v8::Local.255" = type { %"class.v8::LocalBase.256" }
%"class.v8::LocalBase.256" = type { %"class.v8::IndirectHandleBase" }
%"class.v8::Maybe" = type { i8, i8 }
%"class.v8::Local.263" = type { %"class.v8::LocalBase.264" }
%"class.v8::LocalBase.264" = type { %"class.v8::IndirectHandleBase" }

; Function Attrs: mustprogress nounwind uwtable
define dso_local void @_ZN4node8builtins13BuiltinLoader26CreatePerContextPropertiesEN2v85LocalINS2_6ObjectEEENS3_INS2_5ValueEEENS3_INS2_7ContextEEEPv(ptr %target.coerce, ptr %unused.coerce, ptr %context.coerce, ptr noundef %priv) #4 align 2 {
entry:
  %this.addr.i19 = alloca ptr, align 8
  %slot.addr.i = alloca ptr, align 8
  %this.addr.i.i = alloca ptr, align 8
  %this.addr.i17 = alloca ptr, align 8
  %this.addr.i14 = alloca ptr, align 8
  %this.addr.i = alloca ptr, align 8
  %target = alloca %"class.v8::Local.257", align 8
  %unused = alloca %"class.v8::Local.263", align 8
  %context = alloca %"class.v8::Local.255", align 8
  %priv.addr = alloca ptr, align 8
  %ref.tmp = alloca %"class.v8::Maybe", align 1
  %agg.tmp = alloca %"class.v8::Local.255", align 8
  %coerce.dive = getelementptr inbounds %"class.v8::Local.257", ptr %target, i32 0, i32 0
  %coerce.dive1 = getelementptr inbounds %"class.v8::LocalBase.258", ptr %coerce.dive, i32 0, i32 0
  %coerce.dive2 = getelementptr inbounds %"class.v8::IndirectHandleBase", ptr %coerce.dive1, i32 0, i32 0
  store ptr %target.coerce, ptr %coerce.dive2, align 8
  %coerce.dive3 = getelementptr inbounds %"class.v8::Local.263", ptr %unused, i32 0, i32 0
  %coerce.dive4 = getelementptr inbounds %"class.v8::LocalBase.264", ptr %coerce.dive3, i32 0, i32 0
  %coerce.dive5 = getelementptr inbounds %"class.v8::IndirectHandleBase", ptr %coerce.dive4, i32 0, i32 0
  store ptr %unused.coerce, ptr %coerce.dive5, align 8
  %coerce.dive6 = getelementptr inbounds %"class.v8::Local.255", ptr %context, i32 0, i32 0
  %coerce.dive7 = getelementptr inbounds %"class.v8::LocalBase.256", ptr %coerce.dive6, i32 0, i32 0
  %coerce.dive8 = getelementptr inbounds %"class.v8::IndirectHandleBase", ptr %coerce.dive7, i32 0, i32 0
  store ptr %context.coerce, ptr %coerce.dive8, align 8
  store ptr %priv, ptr %priv.addr, align 8
  store ptr %target, ptr %this.addr.i, align 8
  %this1.i = load ptr, ptr %this.addr.i, align 8
  store ptr %this1.i, ptr %this.addr.i17, align 8
  %this1.i18 = load ptr, ptr %this.addr.i17, align 8
  store ptr %this1.i18, ptr %this.addr.i.i, align 8
  %this1.i.i = load ptr, ptr %this.addr.i.i, align 8
  %0 = load ptr, ptr %this1.i.i, align 8
  store ptr %0, ptr %slot.addr.i, align 8
  %1 = load ptr, ptr %slot.addr.i, align 8
  call void @llvm.memcpy.p0.p0.i64(ptr align 8 %agg.tmp, ptr align 8 %context, i64 8, i1 false)
  %coerce.dive9 = getelementptr inbounds %"class.v8::Local.255", ptr %agg.tmp, i32 0, i32 0
  %coerce.dive10 = getelementptr inbounds %"class.v8::LocalBase.256", ptr %coerce.dive9, i32 0, i32 0
  %coerce.dive11 = getelementptr inbounds %"class.v8::IndirectHandleBase", ptr %coerce.dive10, i32 0, i32 0
  %2 = load ptr, ptr %coerce.dive11, align 8
  %call12 = call i16 @_ZN2v86Object17SetIntegrityLevelENS_5LocalINS_7ContextEEENS_14IntegrityLevelE(ptr noundef nonnull align 1 dereferenceable(1) %1, ptr %2, i32 noundef 0)
  store i16 %call12, ptr %ref.tmp, align 1
  store ptr %ref.tmp, ptr %this.addr.i14, align 8
  %this1.i15 = load ptr, ptr %this.addr.i14, align 8
  store ptr %this1.i15, ptr %this.addr.i19, align 8
  %this1.i20 = load ptr, ptr %this.addr.i19, align 8
  %3 = load i8, ptr %this1.i20, align 1
  %tobool.i21 = trunc i8 %3 to i1
  %lnot3.i = xor i1 %tobool.i21, true
  br i1 %lnot3.i, label %if.then.i, label %_ZNO2v85MaybeIbE8FromJustEv.exit

if.then.i:                                        ; preds = %entry
  call void @_ZN2v812api_internal17FromJustIsNothingEv() #3
  br label %_ZNO2v85MaybeIbE8FromJustEv.exit

_ZNO2v85MaybeIbE8FromJustEv.exit:                 ; preds = %if.then.i, %entry
  ret void
}