; Function Attrs: mustprogress nounwind uwtable
define dso_local void @_ZN4node8builtins13BuiltinLoader26CreatePerContextPropertiesEN2v85LocalINS2_6ObjectEEENS3_INS2_5ValueEEENS3_INS2_7ContextEEEPv(ptr nonnull %target.coerce, ptr nocapture readnone %unused.coerce, ptr %context.coerce, ptr nocapture readnone %priv) #3 align 2 {
entry:
  %call12 = tail call i16 @_ZN2v86Object17SetIntegrityLevelENS_5LocalINS_7ContextEEENS_14IntegrityLevelE(ptr noundef nonnull align 1 dereferenceable(1) %target.coerce, ptr %context.coerce, i32 noundef 0) #23
  %0 = and i16 %call12, 1
  %tobool.i21.not = icmp eq i16 %0, 0
  br i1 %tobool.i21.not, label %if.then.i, label %_ZNO2v85MaybeIbE8FromJustEv.exit

if.then.i:                                        ; preds = %entry
  tail call void @_ZN2v812api_internal17FromJustIsNothingEv() #23
  br label %_ZNO2v85MaybeIbE8FromJustEv.exit

_ZNO2v85MaybeIbE8FromJustEv.exit:                 ; preds = %if.then.i, %entry
  ret void
}